target datalayout = "e-m:e-p270:32:32-p271:32:32-p272:64:64-i64:64-i128:128-f80:128-n8:16:32:64-S128"
target triple = "x86_64-pc-linux-gnu"

; Function Attrs: nounwind uwtable
define hidden i32 @mi_wdupenv_s(ptr noundef %0, ptr noundef %1, ptr noundef %2) #0 {
  %4 = alloca i32, align 4
  %5 = alloca ptr, align 8
  %6 = alloca ptr, align 8
  %7 = alloca ptr, align 8
  store ptr %0, ptr %5, align 8, !tbaa !25
  store ptr %1, ptr %6, align 8, !tbaa !23
  store ptr %2, ptr %7, align 8, !tbaa !13
  %8 = load ptr, ptr %5, align 8, !tbaa !25
  %9 = icmp eq ptr %8, null
  br i1 %9, label %13, label %10

10:                                               ; preds = %3
  %11 = load ptr, ptr %7, align 8, !tbaa !13
  %12 = icmp eq ptr %11, null
  br i1 %12, label %13, label %14

13:                                               ; preds = %10, %3
  store i32 22, ptr %4, align 4
  br label %21

14:                                               ; preds = %10
  %15 = load ptr, ptr %6, align 8, !tbaa !23
  %16 = icmp ne ptr %15, null
  br i1 %16, label %17, label %19

17:                                               ; preds = %14
  %18 = load ptr, ptr %6, align 8, !tbaa !23
  store i64 0, ptr %18, align 8, !tbaa !7
  br label %19

19:                                               ; preds = %17, %14
  %20 = load ptr, ptr %5, align 8, !tbaa !25
  store ptr null, ptr %20, align 8, !tbaa !13
  store i32 22, ptr %4, align 4
  br label %21

21:                                               ; preds = %19, %13
  %22 = load i32, ptr %4, align 4
  ret i32 %22
}